(itasks
Status
p0
(dp1
S'tasks'
p2
ccollections
OrderedDict
p3
((lp4
(lp5
S'anttihaapala'
p6
a(itasks
Job
p7
(dp8
S'started'
p9
cdatetime
datetime
p10
(S'\x07\xdd\x03\x05\x103\x1f\x0b\x1dV'
p11
tp12
Rp13
sS'real_name'
p14
VAntti Haapala
p15
sS'desc'
p16
VKill mikko
p17
sbaa(lp18
S'mikko.ohtamaa'
p19
a(itasks
Job
p20
(dp21
g9
g10
(S'\x07\xdd\x03\x05\x103(\x0c\xbcW'
p22
tp23
Rp24
sg14
VMikko Ohtamaa
p25
sg16
VWatchout for Antti
p26
sbaatp27
Rp28
sb.